target datalayout = "e-m:e-p270:32:32-p271:32:32-p272:64:64-i64:64-i128:128-f80:128-n8:16:32:64-S128"
target triple = "x86_64-pc-linux-gnu"

; Function Attrs: nounwind uwtable
define hidden zeroext i1 @SDL_IsJoystickHaptic_REAL(ptr noundef %0) #0 {
  %2 = alloca ptr, align 8
  %3 = alloca i8, align 1
  store ptr %0, ptr %2, align 8
  call void @llvm.lifetime.start.p0(i64 1, ptr %3) #7
  store i8 0, ptr %3, align 1
  call void @SDL_LockJoysticks_REAL()
  %4 = load ptr, ptr %2, align 8
  %5 = call zeroext i1 @SDL_IsJoystickValid(ptr noundef %4)
  br i1 %5, label %6, label %19

6:                                                ; preds = %1
  %7 = load ptr, ptr %2, align 8
  %8 = call i32 @SDL_GetJoystickID_REAL(ptr noundef %7)
  %9 = call zeroext i1 @SDL_IsGamepad_REAL(i32 noundef %8)
  br i1 %9, label %19, label %10

10:                                               ; preds = %6
  %11 = load ptr, ptr %2, align 8
  %12 = call zeroext i1 @SDL_SYS_JoystickIsHaptic(ptr noundef %11)
  br i1 %12, label %16, label %13

13:                                               ; preds = %10
  %14 = load ptr, ptr %2, align 8
  %15 = call zeroext i1 @SDL_HIDAPI_JoystickIsHaptic(ptr noundef %14)
  br label %16

16:                                               ; preds = %13, %10
  %17 = phi i1 [ true, %10 ], [ %15, %13 ]
  %18 = zext i1 %17 to i8
  store i8 %18, ptr %3, align 1
  br label %19

19:                                               ; preds = %16, %6, %1
  call void @SDL_UnlockJoysticks_REAL()
  %20 = load i8, ptr %3, align 1, !range !8, !noundef !9
  %21 = trunc i8 %20 to i1
  call void @llvm.lifetime.end.p0(i64 1, ptr %3) #7
  ret i1 %21
}