; Function Attrs: nounwind uwtable
define hidden zeroext i1 @SDL_IsJoystickHaptic_REAL(ptr noundef %0) local_unnamed_addr #0 {
  tail call void @SDL_LockJoysticks_REAL() #9
  %2 = tail call zeroext i1 @SDL_IsJoystickValid(ptr noundef %0) #9
  br i1 %2, label %3, label %10

3:                                                ; preds = %1
  %4 = tail call i32 @SDL_GetJoystickID_REAL(ptr noundef %0) #9
  %5 = tail call zeroext i1 @SDL_IsGamepad_REAL(i32 noundef %4) #9
  br i1 %5, label %10, label %6

6:                                                ; preds = %3
  %7 = tail call zeroext i1 @SDL_SYS_JoystickIsHaptic(ptr noundef %0) #9
  br i1 %7, label %10, label %8

8:                                                ; preds = %6
  %9 = tail call zeroext i1 @SDL_HIDAPI_JoystickIsHaptic(ptr noundef %0) #9
  br label %10

10:                                               ; preds = %6, %8, %3, %1
  %.0 = phi i1 [ false, %3 ], [ false, %1 ], [ true, %6 ], [ %9, %8 ]
  tail call void @SDL_UnlockJoysticks_REAL() #9
  ret i1 %.0
}